; ModuleID = '15/805.c'
source_filename = "15/805.c"
target datalayout = "e-m:e-p270:32:32-p271:32:32-p272:64:64-i64:64-f80:128-n8:16:32:64-S128"
target triple = "x86_64-pc-linux-gnu"

@.str = private unnamed_addr constant [3 x i8] c"%d\00", align 1

; Function Attrs: noinline nounwind uwtable
define dso_local i32 @main() #0 {
  %1 = alloca i32, align 4
  %2 = alloca [1000 x [1000 x i32]], align 16
  %3 = alloca i32, align 4
  %4 = alloca i32, align 4
  %5 = alloca i32, align 4
  %6 = alloca i32, align 4
  %7 = alloca i32, align 4
  %8 = alloca i32, align 4
  %9 = alloca i32, align 4
  %10 = alloca i32, align 4
  %11 = alloca i32, align 4
  %12 = alloca i32, align 4
  %13 = alloca i32, align 4
  %14 = alloca i32, align 4
  store i32 0, i32* %1, align 4
  store i32 1000, i32* %4, align 4
  store i32 1001, i32* %5, align 4
  store i32 1001, i32* %6, align 4
  store i32 1000, i32* %7, align 4
  %15 = call i32 (i8*, ...) @__isoc99_scanf(i8* getelementptr inbounds ([3 x i8], [3 x i8]* @.str, i64 0, i64 0), i32* %3)
  store i32 0, i32* %12, align 4
  br label %16

16:                                               ; preds = %37, %0
  %17 = load i32, i32* %12, align 4
  %18 = load i32, i32* %3, align 4
  %19 = icmp slt i32 %17, %18
  br i1 %19, label %20, label %40

20:                                               ; preds = %16
  store i32 0, i32* %13, align 4
  br label %21

21:                                               ; preds = %33, %20
  %22 = load i32, i32* %13, align 4
  %23 = load i32, i32* %3, align 4
  %24 = icmp slt i32 %22, %23
  br i1 %24, label %25, label %36

25:                                               ; preds = %21
  %26 = load i32, i32* %12, align 4
  %27 = sext i32 %26 to i64
  %28 = getelementptr inbounds [1000 x [1000 x i32]], [1000 x [1000 x i32]]* %2, i64 0, i64 %27
  %29 = load i32, i32* %13, align 4
  %30 = sext i32 %29 to i64
  %31 = getelementptr inbounds [1000 x i32], [1000 x i32]* %28, i64 0, i64 %30
  %32 = call i32 (i8*, ...) @__isoc99_scanf(i8* getelementptr inbounds ([3 x i8], [3 x i8]* @.str, i64 0, i64 0), i32* %31)
  br label %33

33:                                               ; preds = %25
  %34 = load i32, i32* %13, align 4
  %35 = add nsw i32 %34, 1
  store i32 %35, i32* %13, align 4
  br label %21

36:                                               ; preds = %21
  br label %37

37:                                               ; preds = %36
  %38 = load i32, i32* %12, align 4
  %39 = add nsw i32 %38, 1
  store i32 %39, i32* %12, align 4
  br label %16

40:                                               ; preds = %16
  store i32 0, i32* %9, align 4
  br label %41

41:                                               ; preds = %72, %40
  %42 = load i32, i32* %9, align 4
  %43 = load i32, i32* %3, align 4
  %44 = icmp slt i32 %42, %43
  br i1 %44, label %45, label %75

45:                                               ; preds = %41
  %46 = load i32, i32* %4, align 4
  %47 = load i32, i32* %5, align 4
  %48 = icmp eq i32 %46, %47
  br i1 %48, label %49, label %50

49:                                               ; preds = %45
  br label %75

50:                                               ; preds = %45
  store i32 0, i32* %4, align 4
  br label %51

51:                                               ; preds = %68, %50
  %52 = load i32, i32* %4, align 4
  %53 = load i32, i32* %3, align 4
  %54 = icmp slt i32 %52, %53
  br i1 %54, label %55, label %71

55:                                               ; preds = %51
  %56 = load i32, i32* %9, align 4
  %57 = sext i32 %56 to i64
  %58 = getelementptr inbounds [1000 x [1000 x i32]], [1000 x [1000 x i32]]* %2, i64 0, i64 %57
  %59 = load i32, i32* %4, align 4
  %60 = sext i32 %59 to i64
  %61 = getelementptr inbounds [1000 x i32], [1000 x i32]* %58, i64 0, i64 %60
  %62 = load i32, i32* %61, align 4
  %63 = icmp eq i32 %62, 0
  br i1 %63, label %64, label %67

64:                                               ; preds = %55
  %65 = load i32, i32* %4, align 4
  store i32 %65, i32* %5, align 4
  %66 = load i32, i32* %9, align 4
  store i32 %66, i32* %8, align 4
  br label %71

67:                                               ; preds = %55
  br label %68

68:                                               ; preds = %67
  %69 = load i32, i32* %4, align 4
  %70 = add nsw i32 %69, 1
  store i32 %70, i32* %4, align 4
  br label %51

71:                                               ; preds = %64, %51
  br label %72

72:                                               ; preds = %71
  %73 = load i32, i32* %9, align 4
  %74 = add nsw i32 %73, 1
  store i32 %74, i32* %9, align 4
  br label %41

75:                                               ; preds = %49, %41
  %76 = load i32, i32* %3, align 4
  %77 = sub nsw i32 %76, 1
  store i32 %77, i32* %14, align 4
  br label %78

78:                                               ; preds = %109, %75
  %79 = load i32, i32* %14, align 4
  %80 = icmp sgt i32 %79, -1
  br i1 %80, label %81, label %112

81:                                               ; preds = %78
  %82 = load i32, i32* %6, align 4
  %83 = load i32, i32* %7, align 4
  %84 = icmp eq i32 %82, %83
  br i1 %84, label %85, label %86

85:                                               ; preds = %81
  br label %112

86:                                               ; preds = %81
  %87 = load i32, i32* %3, align 4
  %88 = sub nsw i32 %87, 1
  store i32 %88, i32* %6, align 4
  br label %89

89:                                               ; preds = %105, %86
  %90 = load i32, i32* %6, align 4
  %91 = icmp sgt i32 %90, -1
  br i1 %91, label %92, label %108

92:                                               ; preds = %89
  %93 = load i32, i32* %14, align 4
  %94 = sext i32 %93 to i64
  %95 = getelementptr inbounds [1000 x [1000 x i32]], [1000 x [1000 x i32]]* %2, i64 0, i64 %94
  %96 = load i32, i32* %6, align 4
  %97 = sext i32 %96 to i64
  %98 = getelementptr inbounds [1000 x i32], [1000 x i32]* %95, i64 0, i64 %97
  %99 = load i32, i32* %98, align 4
  %100 = icmp eq i32 %99, 0
  br i1 %100, label %101, label %104

101:                                              ; preds = %92
  %102 = load i32, i32* %6, align 4
  store i32 %102, i32* %7, align 4
  %103 = load i32, i32* %14, align 4
  store i32 %103, i32* %10, align 4
  br label %108

104:                                              ; preds = %92
  br label %105

105:                                              ; preds = %104
  %106 = load i32, i32* %6, align 4
  %107 = add nsw i32 %106, -1
  store i32 %107, i32* %6, align 4
  br label %89

108:                                              ; preds = %101, %89
  br label %109

109:                                              ; preds = %108
  %110 = load i32, i32* %14, align 4
  %111 = add nsw i32 %110, -1
  store i32 %111, i32* %14, align 4
  br label %78

112:                                              ; preds = %85, %78
  %113 = load i32, i32* %7, align 4
  %114 = load i32, i32* %4, align 4
  %115 = sub nsw i32 %113, %114
  %116 = sub nsw i32 %115, 1
  %117 = load i32, i32* %10, align 4
  %118 = load i32, i32* %9, align 4
  %119 = sub nsw i32 %117, %118
  %120 = mul nsw i32 %116, %119
  store i32 %120, i32* %11, align 4
  %121 = load i32, i32* %11, align 4
  %122 = call i32 (i8*, ...) @printf(i8* getelementptr inbounds ([3 x i8], [3 x i8]* @.str, i64 0, i64 0), i32 %121)
  ret i32 0
}

declare dso_local i32 @__isoc99_scanf(i8*, ...) #1

declare dso_local i32 @printf(i8*, ...) #1


!llvm.module.flags = !{!0}
!llvm.ident = !{!1}

!0 = !{i32 1, !"wchar_size", i32 4}
!1 = !{!"clang version 10.0.0-4ubuntu1 "}
