; ModuleID = 'source-C-CXX/14/805.c'
source_filename = "source-C-CXX/14/805.c"
target datalayout = "e-m:e-p270:32:32-p271:32:32-p272:64:64-i64:64-f80:128-n8:16:32:64-S128"
target triple = "x86_64-pc-linux-gnu"

@.str = private unnamed_addr constant [3 x i8] c"%d\00", align 1

; Function Attrs: nofree nounwind sspstrong uwtable
define dso_local i32 @main() local_unnamed_addr #0 {
  %1 = alloca [1000 x [1000 x i32]], align 16
  %2 = alloca i32, align 4
  %3 = bitcast [1000 x [1000 x i32]]* %1 to i8*
  call void @llvm.lifetime.start.p0i8(i64 4000000, i8* nonnull %3) #3
  %4 = bitcast i32* %2 to i8*
  call void @llvm.lifetime.start.p0i8(i64 4, i8* nonnull %4) #3
  %5 = call i32 (i8*, ...) @__isoc99_scanf(i8* getelementptr inbounds ([3 x i8], [3 x i8]* @.str, i64 0, i64 0), i32* nonnull %2)
  %6 = load i32, i32* %2, align 4, !tbaa !5
  %7 = icmp sgt i32 %6, 0
  br i1 %7, label %8, label %73

8:                                                ; preds = %0, %35
  %9 = phi i32 [ %36, %35 ], [ %6, %0 ]
  %10 = phi i64 [ %38, %35 ], [ 0, %0 ]
  %11 = icmp sgt i32 %9, 0
  br i1 %11, label %40, label %35

12:                                               ; preds = %35
  %13 = icmp slt i32 %36, 1
  br i1 %13, label %73, label %14

14:                                               ; preds = %12
  %15 = zext i32 %36 to i64
  %16 = zext i32 %36 to i64
  %17 = icmp eq i32 %36, 1001
  br label %18

18:                                               ; preds = %14, %31
  %19 = phi i64 [ 0, %14 ], [ %32, %31 ]
  br label %20

20:                                               ; preds = %18, %28
  %21 = phi i64 [ 0, %18 ], [ %29, %28 ]
  %22 = getelementptr inbounds [1000 x [1000 x i32]], [1000 x [1000 x i32]]* %1, i64 0, i64 %19, i64 %21
  %23 = load i32, i32* %22, align 4, !tbaa !5
  %24 = icmp eq i32 %23, 0
  br i1 %24, label %25, label %28

25:                                               ; preds = %20
  %26 = trunc i64 %21 to i32
  %27 = add nuw nsw i64 %19, 1
  br label %48

28:                                               ; preds = %20
  %29 = add nuw nsw i64 %21, 1
  %30 = icmp eq i64 %29, %16
  br i1 %30, label %31, label %20, !llvm.loop !9

31:                                               ; preds = %28
  %32 = add nuw nsw i64 %19, 1
  %33 = icmp uge i64 %32, %15
  %34 = or i1 %33, %17
  br i1 %34, label %48, label %18, !llvm.loop !11

35:                                               ; preds = %40, %8
  %36 = phi i32 [ %9, %8 ], [ %45, %40 ]
  %37 = sext i32 %36 to i64
  %38 = add nuw nsw i64 %10, 1
  %39 = icmp slt i64 %38, %37
  br i1 %39, label %8, label %12, !llvm.loop !12

40:                                               ; preds = %8, %40
  %41 = phi i64 [ %44, %40 ], [ 0, %8 ]
  %42 = getelementptr inbounds [1000 x [1000 x i32]], [1000 x [1000 x i32]]* %1, i64 0, i64 %10, i64 %41
  %43 = call i32 (i8*, ...) @__isoc99_scanf(i8* getelementptr inbounds ([3 x i8], [3 x i8]* @.str, i64 0, i64 0), i32* nonnull %42)
  %44 = add nuw nsw i64 %41, 1
  %45 = load i32, i32* %2, align 4, !tbaa !5
  %46 = sext i32 %45 to i64
  %47 = icmp slt i64 %44, %46
  br i1 %47, label %40, label %35, !llvm.loop !14

48:                                               ; preds = %31, %25
  %49 = phi i64 [ %27, %25 ], [ %32, %31 ]
  %50 = phi i32 [ %26, %25 ], [ %36, %31 ]
  %51 = trunc i64 %49 to i32
  br i1 %13, label %73, label %52

52:                                               ; preds = %48
  %53 = zext i32 %36 to i64
  %54 = zext i32 %36 to i64
  br label %55

55:                                               ; preds = %52, %69
  %56 = phi i64 [ %54, %52 ], [ %57, %69 ]
  %57 = add nsw i64 %56, -1
  br label %58

58:                                               ; preds = %55, %63
  %59 = phi i64 [ %53, %55 ], [ %68, %63 ]
  %60 = phi i32 [ %36, %55 ], [ %61, %63 ]
  %61 = add nsw i32 %60, -1
  %62 = icmp sgt i64 %59, 0
  br i1 %62, label %63, label %69

63:                                               ; preds = %58
  %64 = zext i32 %61 to i64
  %65 = getelementptr inbounds [1000 x [1000 x i32]], [1000 x [1000 x i32]]* %1, i64 0, i64 %57, i64 %64
  %66 = load i32, i32* %65, align 4, !tbaa !5
  %67 = icmp eq i32 %66, 0
  %68 = add nsw i64 %59, -1
  br i1 %67, label %71, label %58, !llvm.loop !15

69:                                               ; preds = %58
  %70 = icmp slt i64 %56, 2
  br i1 %70, label %73, label %55, !llvm.loop !16

71:                                               ; preds = %63
  %72 = trunc i64 %57 to i32
  br label %73

73:                                               ; preds = %69, %71, %12, %0, %48
  %74 = phi i32 [ %51, %48 ], [ 0, %0 ], [ 0, %12 ], [ %51, %71 ], [ %51, %69 ]
  %75 = phi i32 [ %50, %48 ], [ 1000, %0 ], [ 1000, %12 ], [ %50, %71 ], [ %50, %69 ]
  %76 = phi i32 [ 1000, %48 ], [ 1000, %0 ], [ 1000, %12 ], [ %61, %71 ], [ 1000, %69 ]
  %77 = phi i32 [ undef, %48 ], [ undef, %0 ], [ undef, %12 ], [ %72, %71 ], [ undef, %69 ]
  %78 = xor i32 %75, -1
  %79 = add i32 %76, %78
  %80 = sub nsw i32 %77, %74
  %81 = mul nsw i32 %80, %79
  %82 = call i32 (i8*, ...) @printf(i8* nonnull dereferenceable(1) getelementptr inbounds ([3 x i8], [3 x i8]* @.str, i64 0, i64 0), i32 %81)
  call void @llvm.lifetime.end.p0i8(i64 4, i8* nonnull %4) #3
  call void @llvm.lifetime.end.p0i8(i64 4000000, i8* nonnull %3) #3
  ret i32 0
}

; Function Attrs: argmemonly mustprogress nofree nosync nounwind willreturn
declare void @llvm.lifetime.start.p0i8(i64 immarg, i8* nocapture) #1

; Function Attrs: nofree nounwind
declare noundef i32 @__isoc99_scanf(i8* nocapture noundef readonly, ...) local_unnamed_addr #2

; Function Attrs: argmemonly mustprogress nofree nosync nounwind willreturn
declare void @llvm.lifetime.end.p0i8(i64 immarg, i8* nocapture) #1

; Function Attrs: nofree nounwind
declare noundef i32 @printf(i8* nocapture noundef readonly, ...) local_unnamed_addr #2


!llvm.module.flags = !{!0, !1, !2, !3}
!llvm.ident = !{!4}

!0 = !{i32 1, !"wchar_size", i32 4}
!1 = !{i32 7, !"PIC Level", i32 2}
!2 = !{i32 7, !"PIE Level", i32 2}
!3 = !{i32 7, !"uwtable", i32 1}
!4 = !{!"clang version 13.0.0"}
!5 = !{!6, !6, i64 0}
!6 = !{!"int", !7, i64 0}
!7 = !{!"omnipotent char", !8, i64 0}
!8 = !{!"Simple C/C++ TBAA"}
!9 = distinct !{!9, !10}
!10 = !{!"llvm.loop.mustprogress"}
!11 = distinct !{!11, !10}
!12 = distinct !{!12, !10, !13}
!13 = !{!"llvm.loop.unswitch.partial.disable"}
!14 = distinct !{!14, !10}
!15 = distinct !{!15, !10}
!16 = distinct !{!16, !10}
